; Function Attrs: mustprogress uwtable
define void @_ZN3gmx16ModularSimulatorC2ESt10unique_ptrINS_19LegacySimulatorDataESt14default_deleteIS2_EES1_INS_24ReadCheckpointDataHolderES3_IS6_EE(ptr noundef nonnull align 8 dereferenceable(24) %0, ptr nocapture noundef %1, ptr nocapture noundef %2) unnamed_addr #0 align 2 personality ptr @__gxx_personality_v0 {
  store ptr getelementptr inbounds inrange(-16, 24) ({ [5 x ptr] }, ptr @_ZTVN3gmx16ModularSimulatorE, i64 0, i32 0, i64 2), ptr %0, align 8
  %4 = getelementptr inbounds i8, ptr %0, i64 8
  %5 = load i64, ptr %1, align 8
  store i64 %5, ptr %4, align 8
  store ptr null, ptr %1, align 8
  %6 = getelementptr inbounds i8, ptr %0, i64 16
  %7 = load i64, ptr %2, align 8
  store i64 %7, ptr %6, align 8
  store ptr null, ptr %2, align 8
  invoke void @_ZN3gmx16ModularSimulator34checkInputForDisabledFunctionalityEv(ptr noundef nonnull align 8 dereferenceable(24) %0)
          to label %8 unwind label %9

8:                                                ; preds = %3
  ret void

9:                                                ; preds = %3
  %10 = landingpad { ptr, i32 }
          cleanup
  tail call void @_ZNSt10unique_ptrIN3gmx24ReadCheckpointDataHolderESt14default_deleteIS1_EED2Ev(ptr noundef nonnull align 8 dereferenceable(8) %6) #15
  tail call void @_ZNSt10unique_ptrIN3gmx19LegacySimulatorDataESt14default_deleteIS1_EED2Ev(ptr noundef nonnull align 8 dereferenceable(8) %4) #15
  resume { ptr, i32 } %10
}